target datalayout = "e-m:e-p270:32:32-p271:32:32-p272:64:64-i64:64-i128:128-f80:128-n8:16:32:64-S128"
target triple = "x86_64-pc-linux-gnu"

%"class.std::__cxx11::basic_string" = type { %"struct.std::__cxx11::basic_string<char>::_Alloc_hider", i64, %union.anon.14 }
%"struct.std::__cxx11::basic_string<char>::_Alloc_hider" = type { ptr }
%union.anon.14 = type { i64, [8 x i8] }
%"class.llvm::SymbolRewriter::RewriteDescriptor.base" = type <{ ptr, i32 }>
%"class.(anonymous namespace)::PatternRewriteDescriptor.241" = type { %"class.llvm::SymbolRewriter::RewriteDescriptor.base", %"class.std::__cxx11::basic_string", %"class.std::__cxx11::basic_string" }

; Function Attrs: mustprogress nounwind uwtable
define linkonce_odr hidden void @_ZN4llvm14SymbolRewriter17RewriteDescriptorD2Ev(ptr noundef nonnull align 8 dereferenceable(12) %0) unnamed_addr #1 comdat align 2 {
  %2 = alloca ptr, align 8
  store ptr %0, ptr %2, align 8
  ret void
}

; Function Attrs: mustprogress nounwind uwtable
define internal void @_ZN12_GLOBAL__N_124PatternRewriteDescriptorILN4llvm14SymbolRewriter17RewriteDescriptor4TypeE2ENS1_14GlobalVariableEXadL_ZNKS1_6Module17getGlobalVariableENS1_9StringRefEEEXadL_ZNS6_7globalsEvEEED2Ev(ptr noundef nonnull align 8 dereferenceable(80) %0) unnamed_addr #1 align 2 {
  %2 = alloca ptr, align 8
  store ptr %0, ptr %2, align 8
  %3 = load ptr, ptr %2, align 8
  store ptr getelementptr inbounds inrange(-16, 24) ({ [5 x ptr] }, ptr @_ZTVN12_GLOBAL__N_124PatternRewriteDescriptorILN4llvm14SymbolRewriter17RewriteDescriptor4TypeE2ENS1_14GlobalVariableEXadL_ZNKS1_6Module17getGlobalVariableENS1_9StringRefEEEXadL_ZNS6_7globalsEvEEEE, i32 0, i32 0, i32 2), ptr %3, align 8
  %4 = getelementptr inbounds nuw %"class.(anonymous namespace)::PatternRewriteDescriptor.241", ptr %3, i32 0, i32 2
  call void @_ZNSt7__cxx1112basic_stringIcSt11char_traitsIcESaIcEED1Ev(ptr noundef nonnull align 8 dereferenceable(32) %4) #2
  %5 = getelementptr inbounds nuw %"class.(anonymous namespace)::PatternRewriteDescriptor.241", ptr %3, i32 0, i32 1
  call void @_ZNSt7__cxx1112basic_stringIcSt11char_traitsIcESaIcEED1Ev(ptr noundef nonnull align 8 dereferenceable(32) %5) #2
  call void @_ZN4llvm14SymbolRewriter17RewriteDescriptorD2Ev(ptr noundef nonnull align 8 dereferenceable(12) %3) #2
  ret void
}

; Function Attrs: mustprogress nounwind uwtable
define internal void @_ZN12_GLOBAL__N_124PatternRewriteDescriptorILN4llvm14SymbolRewriter17RewriteDescriptor4TypeE2ENS1_14GlobalVariableEXadL_ZNKS1_6Module17getGlobalVariableENS1_9StringRefEEEXadL_ZNS6_7globalsEvEEED0Ev(ptr noundef nonnull align 8 dereferenceable(80) %0) unnamed_addr #1 align 2 {
  %2 = alloca ptr, align 8
  store ptr %0, ptr %2, align 8
  %3 = load ptr, ptr %2, align 8
  call void @_ZN12_GLOBAL__N_124PatternRewriteDescriptorILN4llvm14SymbolRewriter17RewriteDescriptor4TypeE2ENS1_14GlobalVariableEXadL_ZNKS1_6Module17getGlobalVariableENS1_9StringRefEEEXadL_ZNS6_7globalsEvEEED2Ev(ptr noundef nonnull align 8 dereferenceable(80) %3) #2
  call void @_ZdlPvm(ptr noundef %3, i64 noundef 80) #15
  ret void
}