; Function Attrs: mustprogress nounwind uwtable
define internal void @_ZN12_GLOBAL__N_124PatternRewriteDescriptorILN4llvm14SymbolRewriter17RewriteDescriptor4TypeE2ENS1_14GlobalVariableEXadL_ZNKS1_6Module17getGlobalVariableENS1_9StringRefEEEXadL_ZNS6_7globalsEvEEED0Ev(ptr noundef nonnull align 8 dereferenceable(80) %0) unnamed_addr #0 align 2 {
  store ptr getelementptr inbounds inrange(-16, 24) (i8, ptr @_ZTVN12_GLOBAL__N_124PatternRewriteDescriptorILN4llvm14SymbolRewriter17RewriteDescriptor4TypeE2ENS1_14GlobalVariableEXadL_ZNKS1_6Module17getGlobalVariableENS1_9StringRefEEEXadL_ZNS6_7globalsEvEEEE, i64 16), ptr %0, align 8
  %2 = getelementptr inbounds nuw i8, ptr %0, i64 48
  tail call void @_ZNSt7__cxx1112basic_stringIcSt11char_traitsIcESaIcEED1Ev(ptr noundef nonnull align 8 dereferenceable(32) %2) #16
  %3 = getelementptr inbounds nuw i8, ptr %0, i64 16
  tail call void @_ZNSt7__cxx1112basic_stringIcSt11char_traitsIcESaIcEED1Ev(ptr noundef nonnull align 8 dereferenceable(32) %3) #16
  tail call void @_ZdlPvm(ptr noundef nonnull %0, i64 noundef 80) #17
  ret void
}